target datalayout = "e-m:e-p270:32:32-p271:32:32-p272:64:64-i64:64-i128:128-f80:128-n8:16:32:64-S128"
target triple = "x86_64-pc-linux-gnu"

%"struct.cvc5::internal::RegExpRepeat" = type { i32 }
%"struct.cvc5::internal::RegExpLoop" = type { i32, i32 }
%"class.std::ios_base" = type { ptr, i64, i64, i32, i32, i32, ptr, %"struct.std::ios_base::_Words", [8 x %"struct.std::ios_base::_Words"], i32, ptr, %"class.std::locale" }
%"struct.std::ios_base::_Words" = type { ptr, i64 }
%"class.std::locale" = type { ptr }

$_ZNSt11char_traitsIcE6lengthEPKc = comdat any

$_ZStorSt12_Ios_IostateS_ = comdat any

@.str = private unnamed_addr constant [2 x i8] c"[\00", align 1
@.str.1 = private unnamed_addr constant [3 x i8] c"..\00", align 1
@.str.2 = private unnamed_addr constant [2 x i8] c"]\00", align 1

@_ZN4cvc58internal12RegExpRepeatC1Ej = hidden unnamed_addr alias void (ptr, i32), ptr @_ZN4cvc58internal12RegExpRepeatC2Ej
@_ZN4cvc58internal10RegExpLoopC1Ejj = hidden unnamed_addr alias void (ptr, i32, i32), ptr @_ZN4cvc58internal10RegExpLoopC2Ejj

; Function Attrs: mustprogress nounwind uwtable
define hidden void @_ZN4cvc58internal12RegExpRepeatC2Ej(ptr noundef nonnull align 4 dereferenceable(4) %0, i32 noundef %1) unnamed_addr #0 align 2 {
  %3 = alloca ptr, align 8
  %4 = alloca i32, align 4
  store ptr %0, ptr %3, align 8, !tbaa !3
  store i32 %1, ptr %4, align 4, !tbaa !8
  %5 = load ptr, ptr %3, align 8
  %6 = getelementptr inbounds nuw %"struct.cvc5::internal::RegExpRepeat", ptr %5, i32 0, i32 0
  %7 = load i32, ptr %4, align 4, !tbaa !8
  store i32 %7, ptr %6, align 4, !tbaa !10
  ret void
}

; Function Attrs: mustprogress nounwind uwtable
define hidden noundef zeroext i1 @_ZNK4cvc58internal12RegExpRepeateqERKS1_(ptr noundef nonnull align 4 dereferenceable(4) %0, ptr noundef nonnull align 4 dereferenceable(4) %1) #0 align 2 {
  %3 = alloca ptr, align 8
  %4 = alloca ptr, align 8
  store ptr %0, ptr %3, align 8, !tbaa !3
  store ptr %1, ptr %4, align 8, !tbaa !3
  %5 = load ptr, ptr %3, align 8
  %6 = getelementptr inbounds nuw %"struct.cvc5::internal::RegExpRepeat", ptr %5, i32 0, i32 0
  %7 = load i32, ptr %6, align 4, !tbaa !10
  %8 = load ptr, ptr %4, align 8, !tbaa !3
  %9 = getelementptr inbounds nuw %"struct.cvc5::internal::RegExpRepeat", ptr %8, i32 0, i32 0
  %10 = load i32, ptr %9, align 4, !tbaa !10
  %11 = icmp eq i32 %7, %10
  ret i1 %11
}

; Function Attrs: mustprogress nounwind uwtable
define hidden void @_ZN4cvc58internal10RegExpLoopC2Ejj(ptr noundef nonnull align 4 dereferenceable(8) %0, i32 noundef %1, i32 noundef %2) unnamed_addr #0 align 2 {
  %4 = alloca ptr, align 8
  %5 = alloca i32, align 4
  %6 = alloca i32, align 4
  store ptr %0, ptr %4, align 8, !tbaa !12
  store i32 %1, ptr %5, align 4, !tbaa !8
  store i32 %2, ptr %6, align 4, !tbaa !8
  %7 = load ptr, ptr %4, align 8
  %8 = getelementptr inbounds nuw %"struct.cvc5::internal::RegExpLoop", ptr %7, i32 0, i32 0
  %9 = load i32, ptr %5, align 4, !tbaa !8
  store i32 %9, ptr %8, align 4, !tbaa !14
  %10 = getelementptr inbounds nuw %"struct.cvc5::internal::RegExpLoop", ptr %7, i32 0, i32 1
  %11 = load i32, ptr %6, align 4, !tbaa !8
  store i32 %11, ptr %10, align 4, !tbaa !16
  ret void
}

; Function Attrs: mustprogress nounwind uwtable
define hidden noundef zeroext i1 @_ZNK4cvc58internal10RegExpLoopeqERKS1_(ptr noundef nonnull align 4 dereferenceable(8) %0, ptr noundef nonnull align 4 dereferenceable(8) %1) #0 align 2 {
  %3 = alloca ptr, align 8
  %4 = alloca ptr, align 8
  store ptr %0, ptr %3, align 8, !tbaa !12
  store ptr %1, ptr %4, align 8, !tbaa !12
  %5 = load ptr, ptr %3, align 8
  %6 = getelementptr inbounds nuw %"struct.cvc5::internal::RegExpLoop", ptr %5, i32 0, i32 0
  %7 = load i32, ptr %6, align 4, !tbaa !14
  %8 = load ptr, ptr %4, align 8, !tbaa !12
  %9 = getelementptr inbounds nuw %"struct.cvc5::internal::RegExpLoop", ptr %8, i32 0, i32 0
  %10 = load i32, ptr %9, align 4, !tbaa !14
  %11 = icmp eq i32 %7, %10
  br i1 %11, label %12, label %19

12:                                               ; preds = %2
  %13 = getelementptr inbounds nuw %"struct.cvc5::internal::RegExpLoop", ptr %5, i32 0, i32 1
  %14 = load i32, ptr %13, align 4, !tbaa !16
  %15 = load ptr, ptr %4, align 8, !tbaa !12
  %16 = getelementptr inbounds nuw %"struct.cvc5::internal::RegExpLoop", ptr %15, i32 0, i32 1
  %17 = load i32, ptr %16, align 4, !tbaa !16
  %18 = icmp eq i32 %14, %17
  br label %19

19:                                               ; preds = %12, %2
  %20 = phi i1 [ false, %2 ], [ %18, %12 ]
  ret i1 %20
}

; Function Attrs: mustprogress nounwind uwtable
define hidden noundef i64 @_ZNK4cvc58internal24RegExpRepeatHashFunctionclERKNS0_12RegExpRepeatE(ptr noundef nonnull align 1 dereferenceable(1) %0, ptr noundef nonnull align 4 dereferenceable(4) %1) #0 align 2 {
  %3 = alloca ptr, align 8
  %4 = alloca ptr, align 8
  store ptr %0, ptr %3, align 8, !tbaa !17
  store ptr %1, ptr %4, align 8, !tbaa !3
  %5 = load ptr, ptr %4, align 8, !tbaa !3
  %6 = getelementptr inbounds nuw %"struct.cvc5::internal::RegExpRepeat", ptr %5, i32 0, i32 0
  %7 = load i32, ptr %6, align 4, !tbaa !10
  %8 = zext i32 %7 to i64
  ret i64 %8
}

; Function Attrs: mustprogress nounwind uwtable
define hidden noundef i64 @_ZNK4cvc58internal22RegExpLoopHashFunctionclERKNS0_10RegExpLoopE(ptr noundef nonnull align 1 dereferenceable(1) %0, ptr noundef nonnull align 4 dereferenceable(8) %1) #0 align 2 {
  %3 = alloca ptr, align 8
  %4 = alloca ptr, align 8
  store ptr %0, ptr %3, align 8, !tbaa !19
  store ptr %1, ptr %4, align 8, !tbaa !12
  %5 = load ptr, ptr %4, align 8, !tbaa !12
  %6 = getelementptr inbounds nuw %"struct.cvc5::internal::RegExpLoop", ptr %5, i32 0, i32 0
  %7 = load i32, ptr %6, align 4, !tbaa !14
  %8 = load ptr, ptr %4, align 8, !tbaa !12
  %9 = getelementptr inbounds nuw %"struct.cvc5::internal::RegExpLoop", ptr %8, i32 0, i32 1
  %10 = load i32, ptr %9, align 4, !tbaa !16
  %11 = add i32 %7, %10
  %12 = zext i32 %11 to i64
  ret i64 %12
}

; Function Attrs: mustprogress uwtable
define hidden noundef nonnull align 8 dereferenceable(8) ptr @_ZN4cvc58internallsERSoRKNS0_12RegExpRepeatE(ptr noundef nonnull align 8 dereferenceable(8) %0, ptr noundef nonnull align 4 dereferenceable(4) %1) #1 {
  %3 = alloca ptr, align 8
  %4 = alloca ptr, align 8
  store ptr %0, ptr %3, align 8, !tbaa !21
  store ptr %1, ptr %4, align 8, !tbaa !3
  %5 = load ptr, ptr %3, align 8, !tbaa !21
  %6 = load ptr, ptr %4, align 8, !tbaa !3
  %7 = getelementptr inbounds nuw %"struct.cvc5::internal::RegExpRepeat", ptr %6, i32 0, i32 0
  %8 = load i32, ptr %7, align 4, !tbaa !10
  %9 = call noundef nonnull align 8 dereferenceable(8) ptr @_ZNSolsEj(ptr noundef nonnull align 8 dereferenceable(8) %5, i32 noundef %8)
  ret ptr %9
}

; Function Attrs: mustprogress uwtable
define available_externally noundef nonnull align 8 dereferenceable(8) ptr @_ZNSolsEj(ptr noundef nonnull align 8 dereferenceable(8) %0, i32 noundef %1) #1 align 2 {
  %3 = alloca ptr, align 8
  %4 = alloca i32, align 4
  store ptr %0, ptr %3, align 8, !tbaa !21
  store i32 %1, ptr %4, align 4, !tbaa !8
  %5 = load ptr, ptr %3, align 8
  %6 = load i32, ptr %4, align 4, !tbaa !8
  %7 = zext i32 %6 to i64
  %8 = call noundef nonnull align 8 dereferenceable(8) ptr @_ZNSo9_M_insertImEERSoT_(ptr noundef nonnull align 8 dereferenceable(8) %5, i64 noundef %7)
  ret ptr %8
}

; Function Attrs: mustprogress uwtable
define hidden noundef nonnull align 8 dereferenceable(8) ptr @_ZN4cvc58internallsERSoRKNS0_10RegExpLoopE(ptr noundef nonnull align 8 dereferenceable(8) %0, ptr noundef nonnull align 4 dereferenceable(8) %1) #1 {
  %3 = alloca ptr, align 8
  %4 = alloca ptr, align 8
  store ptr %0, ptr %3, align 8, !tbaa !21
  store ptr %1, ptr %4, align 8, !tbaa !12
  %5 = load ptr, ptr %3, align 8, !tbaa !21
  %6 = call noundef nonnull align 8 dereferenceable(8) ptr @_ZStlsISt11char_traitsIcEERSt13basic_ostreamIcT_ES5_PKc(ptr noundef nonnull align 8 dereferenceable(8) %5, ptr noundef @.str)
  %7 = load ptr, ptr %4, align 8, !tbaa !12
  %8 = getelementptr inbounds nuw %"struct.cvc5::internal::RegExpLoop", ptr %7, i32 0, i32 0
  %9 = load i32, ptr %8, align 4, !tbaa !14
  %10 = call noundef nonnull align 8 dereferenceable(8) ptr @_ZNSolsEj(ptr noundef nonnull align 8 dereferenceable(8) %6, i32 noundef %9)
  %11 = call noundef nonnull align 8 dereferenceable(8) ptr @_ZStlsISt11char_traitsIcEERSt13basic_ostreamIcT_ES5_PKc(ptr noundef nonnull align 8 dereferenceable(8) %10, ptr noundef @.str.1)
  %12 = load ptr, ptr %4, align 8, !tbaa !12
  %13 = getelementptr inbounds nuw %"struct.cvc5::internal::RegExpLoop", ptr %12, i32 0, i32 1
  %14 = load i32, ptr %13, align 4, !tbaa !16
  %15 = call noundef nonnull align 8 dereferenceable(8) ptr @_ZNSolsEj(ptr noundef nonnull align 8 dereferenceable(8) %11, i32 noundef %14)
  %16 = call noundef nonnull align 8 dereferenceable(8) ptr @_ZStlsISt11char_traitsIcEERSt13basic_ostreamIcT_ES5_PKc(ptr noundef nonnull align 8 dereferenceable(8) %15, ptr noundef @.str.2)
  ret ptr %16
}

; Function Attrs: inlinehint mustprogress uwtable
define available_externally noundef nonnull align 8 dereferenceable(8) ptr @_ZStlsISt11char_traitsIcEERSt13basic_ostreamIcT_ES5_PKc(ptr noundef nonnull align 8 dereferenceable(8) %0, ptr noundef %1) #2 {
  %3 = alloca ptr, align 8
  %4 = alloca ptr, align 8
  store ptr %0, ptr %3, align 8, !tbaa !21
  store ptr %1, ptr %4, align 8, !tbaa !23
  %5 = load ptr, ptr %4, align 8, !tbaa !23
  %6 = icmp ne ptr %5, null
  br i1 %6, label %13, label %7

7:                                                ; preds = %2
  %8 = load ptr, ptr %3, align 8, !tbaa !21
  %9 = load ptr, ptr %8, align 8, !tbaa !25
  %10 = getelementptr i8, ptr %9, i64 -24
  %11 = load i64, ptr %10, align 8
  %12 = getelementptr inbounds i8, ptr %8, i64 %11
  call void @_ZNSt9basic_iosIcSt11char_traitsIcEE8setstateESt12_Ios_Iostate(ptr noundef nonnull align 8 dereferenceable(264) %12, i32 noundef 1)
  br label %19

13:                                               ; preds = %2
  %14 = load ptr, ptr %3, align 8, !tbaa !21
  %15 = load ptr, ptr %4, align 8, !tbaa !23
  %16 = load ptr, ptr %4, align 8, !tbaa !23
  %17 = call noundef i64 @_ZNSt11char_traitsIcE6lengthEPKc(ptr noundef %16)
  %18 = call noundef nonnull align 8 dereferenceable(8) ptr @_ZSt16__ostream_insertIcSt11char_traitsIcEERSt13basic_ostreamIT_T0_ES6_PKS3_l(ptr noundef nonnull align 8 dereferenceable(8) %14, ptr noundef %15, i64 noundef %17)
  br label %19

19:                                               ; preds = %13, %7
  %20 = load ptr, ptr %3, align 8, !tbaa !21
  ret ptr %20
}

declare noundef nonnull align 8 dereferenceable(8) ptr @_ZNSo9_M_insertImEERSoT_(ptr noundef nonnull align 8 dereferenceable(8), i64 noundef) #3

; Function Attrs: mustprogress uwtable
define available_externally void @_ZNSt9basic_iosIcSt11char_traitsIcEE8setstateESt12_Ios_Iostate(ptr noundef nonnull align 8 dereferenceable(264) %0, i32 noundef %1) #1 align 2 {
  %3 = alloca ptr, align 8
  %4 = alloca i32, align 4
  store ptr %0, ptr %3, align 8, !tbaa !27
  store i32 %1, ptr %4, align 4, !tbaa !29
  %5 = load ptr, ptr %3, align 8
  %6 = call noundef i32 @_ZNKSt9basic_iosIcSt11char_traitsIcEE7rdstateEv(ptr noundef nonnull align 8 dereferenceable(264) %5)
  %7 = load i32, ptr %4, align 4, !tbaa !29
  %8 = call noundef i32 @_ZStorSt12_Ios_IostateS_(i32 noundef %6, i32 noundef %7)
  call void @_ZNSt9basic_iosIcSt11char_traitsIcEE5clearESt12_Ios_Iostate(ptr noundef nonnull align 8 dereferenceable(264) %5, i32 noundef %8)
  ret void
}

declare noundef nonnull align 8 dereferenceable(8) ptr @_ZSt16__ostream_insertIcSt11char_traitsIcEERSt13basic_ostreamIT_T0_ES6_PKS3_l(ptr noundef nonnull align 8 dereferenceable(8), ptr noundef, i64 noundef) #3

; Function Attrs: mustprogress nounwind uwtable
define linkonce_odr hidden noundef i64 @_ZNSt11char_traitsIcE6lengthEPKc(ptr noundef %0) #0 comdat align 2 {
  %2 = alloca ptr, align 8
  store ptr %0, ptr %2, align 8, !tbaa !23
  %3 = load ptr, ptr %2, align 8, !tbaa !23
  %4 = call i64 @strlen(ptr noundef %3) #6
  ret i64 %4
}

declare void @_ZNSt9basic_iosIcSt11char_traitsIcEE5clearESt12_Ios_Iostate(ptr noundef nonnull align 8 dereferenceable(264), i32 noundef) #3

; Function Attrs: inlinehint mustprogress nounwind uwtable
define linkonce_odr noundef i32 @_ZStorSt12_Ios_IostateS_(i32 noundef %0, i32 noundef %1) #4 comdat {
  %3 = alloca i32, align 4
  %4 = alloca i32, align 4
  store i32 %0, ptr %3, align 4, !tbaa !29
  store i32 %1, ptr %4, align 4, !tbaa !29
  %5 = load i32, ptr %3, align 4, !tbaa !29
  %6 = load i32, ptr %4, align 4, !tbaa !29
  %7 = or i32 %5, %6
  ret i32 %7
}

; Function Attrs: mustprogress nounwind uwtable
define available_externally noundef i32 @_ZNKSt9basic_iosIcSt11char_traitsIcEE7rdstateEv(ptr noundef nonnull align 8 dereferenceable(264) %0) #0 align 2 {
  %2 = alloca ptr, align 8
  store ptr %0, ptr %2, align 8, !tbaa !27
  %3 = load ptr, ptr %2, align 8
  %4 = getelementptr inbounds nuw %"class.std::ios_base", ptr %3, i32 0, i32 5
  %5 = load i32, ptr %4, align 8, !tbaa !31
  ret i32 %5
}

; Function Attrs: nounwind
declare i64 @strlen(ptr noundef) #5


!llvm.module.flags = !{!0, !1, !2}

!0 = !{i32 1, !"wchar_size", i32 4}
!1 = !{i32 8, !"PIC Level", i32 2}
!2 = !{i32 7, !"uwtable", i32 2}
!3 = !{!4, !4, i64 0}
!4 = !{!"p1 _ZTSN4cvc58internal12RegExpRepeatE", !5, i64 0}
!5 = !{!"any pointer", !6, i64 0}
!6 = !{!"omnipotent char", !7, i64 0}
!7 = !{!"Simple C++ TBAA"}
!8 = !{!9, !9, i64 0}
!9 = !{!"int", !6, i64 0}
!10 = !{!11, !9, i64 0}
!11 = !{!"_ZTSN4cvc58internal12RegExpRepeatE", !9, i64 0}
!12 = !{!13, !13, i64 0}
!13 = !{!"p1 _ZTSN4cvc58internal10RegExpLoopE", !5, i64 0}
!14 = !{!15, !9, i64 0}
!15 = !{!"_ZTSN4cvc58internal10RegExpLoopE", !9, i64 0, !9, i64 4}
!16 = !{!15, !9, i64 4}
!17 = !{!18, !18, i64 0}
!18 = !{!"p1 _ZTSN4cvc58internal24RegExpRepeatHashFunctionE", !5, i64 0}
!19 = !{!20, !20, i64 0}
!20 = !{!"p1 _ZTSN4cvc58internal22RegExpLoopHashFunctionE", !5, i64 0}
!21 = !{!22, !22, i64 0}
!22 = !{!"p1 _ZTSSo", !5, i64 0}
!23 = !{!24, !24, i64 0}
!24 = !{!"p1 omnipotent char", !5, i64 0}
!25 = !{!26, !26, i64 0}
!26 = !{!"vtable pointer", !7, i64 0}
!27 = !{!28, !28, i64 0}
!28 = !{!"p1 _ZTSSt9basic_iosIcSt11char_traitsIcEE", !5, i64 0}
!29 = !{!30, !30, i64 0}
!30 = !{!"_ZTSSt12_Ios_Iostate", !6, i64 0}
!31 = !{!32, !30, i64 32}
!32 = !{!"_ZTSSt8ios_base", !33, i64 8, !33, i64 16, !34, i64 24, !30, i64 28, !30, i64 32, !35, i64 40, !36, i64 48, !6, i64 64, !9, i64 192, !37, i64 200, !38, i64 208}
!33 = !{!"long", !6, i64 0}
!34 = !{!"_ZTSSt13_Ios_Fmtflags", !6, i64 0}
!35 = !{!"p1 _ZTSNSt8ios_base14_Callback_listE", !5, i64 0}
!36 = !{!"_ZTSNSt8ios_base6_WordsE", !5, i64 0, !33, i64 8}
!37 = !{!"p1 _ZTSNSt8ios_base6_WordsE", !5, i64 0}
!38 = !{!"_ZTSSt6locale", !39, i64 0}
!39 = !{!"p1 _ZTSNSt6locale5_ImplE", !5, i64 0}
