; ModuleID = 'bench/cvc5/original/regexp.ll'
source_filename = "bench/cvc5/original/regexp.ll"
target datalayout = "e-m:e-p270:32:32-p271:32:32-p272:64:64-i64:64-i128:128-f80:128-n8:16:32:64-S128"
target triple = "x86_64-pc-linux-gnu"

@.str = private unnamed_addr constant [2 x i8] c"[\00", align 1
@.str.1 = private unnamed_addr constant [3 x i8] c"..\00", align 1
@.str.2 = private unnamed_addr constant [2 x i8] c"]\00", align 1

@_ZN4cvc58internal12RegExpRepeatC1Ej = hidden unnamed_addr alias void (ptr, i32), ptr @_ZN4cvc58internal12RegExpRepeatC2Ej
@_ZN4cvc58internal10RegExpLoopC1Ejj = hidden unnamed_addr alias void (ptr, i32, i32), ptr @_ZN4cvc58internal10RegExpLoopC2Ejj

; Function Attrs: mustprogress nofree norecurse nosync nounwind willreturn memory(argmem: write) uwtable
define hidden void @_ZN4cvc58internal12RegExpRepeatC2Ej(ptr noundef nonnull writeonly align 4 captures(none) dereferenceable(4) initializes((0, 4)) %0, i32 noundef %1) unnamed_addr #0 align 2 {
  store i32 %1, ptr %0, align 4, !tbaa !3
  ret void
}

; Function Attrs: mustprogress nofree norecurse nosync nounwind willreturn memory(argmem: read) uwtable
define hidden noundef zeroext i1 @_ZNK4cvc58internal12RegExpRepeateqERKS1_(ptr noundef nonnull readonly align 4 captures(none) dereferenceable(4) %0, ptr noundef nonnull readonly align 4 captures(none) dereferenceable(4) %1) local_unnamed_addr #1 align 2 {
  %3 = load i32, ptr %0, align 4, !tbaa !3
  %4 = load i32, ptr %1, align 4, !tbaa !3
  %5 = icmp eq i32 %3, %4
  ret i1 %5
}

; Function Attrs: mustprogress nofree norecurse nosync nounwind willreturn memory(argmem: write) uwtable
define hidden void @_ZN4cvc58internal10RegExpLoopC2Ejj(ptr noundef nonnull writeonly align 4 captures(none) dereferenceable(8) initializes((0, 8)) %0, i32 noundef %1, i32 noundef %2) unnamed_addr #0 align 2 {
  store i32 %1, ptr %0, align 4, !tbaa !8
  %4 = getelementptr inbounds nuw i8, ptr %0, i64 4
  store i32 %2, ptr %4, align 4, !tbaa !10
  ret void
}

; Function Attrs: mustprogress nofree norecurse nosync nounwind willreturn memory(argmem: read) uwtable
define hidden noundef zeroext i1 @_ZNK4cvc58internal10RegExpLoopeqERKS1_(ptr noundef nonnull readonly align 4 captures(none) dereferenceable(8) %0, ptr noundef nonnull readonly align 4 captures(none) dereferenceable(8) %1) local_unnamed_addr #1 align 2 {
  %3 = load i32, ptr %0, align 4, !tbaa !8
  %4 = load i32, ptr %1, align 4, !tbaa !8
  %5 = icmp eq i32 %3, %4
  %6 = getelementptr inbounds nuw i8, ptr %0, i64 4
  %7 = load i32, ptr %6, align 4
  %8 = getelementptr inbounds nuw i8, ptr %1, i64 4
  %9 = load i32, ptr %8, align 4
  %10 = icmp eq i32 %7, %9
  %11 = select i1 %5, i1 %10, i1 false
  ret i1 %11
}

; Function Attrs: mustprogress nofree norecurse nosync nounwind willreturn memory(argmem: read) uwtable
define hidden noundef range(i64 0, 4294967296) i64 @_ZNK4cvc58internal24RegExpRepeatHashFunctionclERKNS0_12RegExpRepeatE(ptr noundef nonnull readnone align 1 captures(none) dereferenceable(1) %0, ptr noundef nonnull readonly align 4 captures(none) dereferenceable(4) %1) local_unnamed_addr #1 align 2 {
  %3 = load i32, ptr %1, align 4, !tbaa !3
  %4 = zext i32 %3 to i64
  ret i64 %4
}

; Function Attrs: mustprogress nofree norecurse nosync nounwind willreturn memory(argmem: read) uwtable
define hidden noundef range(i64 0, 4294967296) i64 @_ZNK4cvc58internal22RegExpLoopHashFunctionclERKNS0_10RegExpLoopE(ptr noundef nonnull readnone align 1 captures(none) dereferenceable(1) %0, ptr noundef nonnull readonly align 4 captures(none) dereferenceable(8) %1) local_unnamed_addr #1 align 2 {
  %3 = load i32, ptr %1, align 4, !tbaa !8
  %4 = getelementptr inbounds nuw i8, ptr %1, i64 4
  %5 = load i32, ptr %4, align 4, !tbaa !10
  %6 = add i32 %5, %3
  %7 = zext i32 %6 to i64
  ret i64 %7
}

; Function Attrs: mustprogress uwtable
define hidden noundef nonnull align 8 dereferenceable(8) ptr @_ZN4cvc58internallsERSoRKNS0_12RegExpRepeatE(ptr noundef nonnull align 8 dereferenceable(8) %0, ptr noundef nonnull readonly align 4 captures(none) dereferenceable(4) %1) local_unnamed_addr #2 {
  %3 = load i32, ptr %1, align 4, !tbaa !3
  %4 = zext i32 %3 to i64
  %5 = tail call noundef nonnull align 8 dereferenceable(8) ptr @_ZNSo9_M_insertImEERSoT_(ptr noundef nonnull align 8 dereferenceable(8) %0, i64 noundef %4)
  ret ptr %5
}

; Function Attrs: mustprogress uwtable
define hidden noundef nonnull align 8 dereferenceable(8) ptr @_ZN4cvc58internallsERSoRKNS0_10RegExpLoopE(ptr noundef nonnull align 8 dereferenceable(8) %0, ptr noundef nonnull readonly align 4 captures(none) dereferenceable(8) %1) local_unnamed_addr #2 {
  %3 = tail call noundef nonnull align 8 dereferenceable(8) ptr @_ZSt16__ostream_insertIcSt11char_traitsIcEERSt13basic_ostreamIT_T0_ES6_PKS3_l(ptr noundef nonnull align 8 dereferenceable(8) %0, ptr noundef nonnull @.str, i64 noundef 1)
  %4 = load i32, ptr %1, align 4, !tbaa !8
  %5 = zext i32 %4 to i64
  %6 = tail call noundef nonnull align 8 dereferenceable(8) ptr @_ZNSo9_M_insertImEERSoT_(ptr noundef nonnull align 8 dereferenceable(8) %0, i64 noundef %5)
  %7 = tail call noundef nonnull align 8 dereferenceable(8) ptr @_ZSt16__ostream_insertIcSt11char_traitsIcEERSt13basic_ostreamIT_T0_ES6_PKS3_l(ptr noundef nonnull align 8 dereferenceable(8) %6, ptr noundef nonnull @.str.1, i64 noundef 2)
  %8 = getelementptr inbounds nuw i8, ptr %1, i64 4
  %9 = load i32, ptr %8, align 4, !tbaa !10
  %10 = zext i32 %9 to i64
  %11 = tail call noundef nonnull align 8 dereferenceable(8) ptr @_ZNSo9_M_insertImEERSoT_(ptr noundef nonnull align 8 dereferenceable(8) %6, i64 noundef %10)
  %12 = tail call noundef nonnull align 8 dereferenceable(8) ptr @_ZSt16__ostream_insertIcSt11char_traitsIcEERSt13basic_ostreamIT_T0_ES6_PKS3_l(ptr noundef nonnull align 8 dereferenceable(8) %11, ptr noundef nonnull @.str.2, i64 noundef 1)
  ret ptr %11
}

declare noundef nonnull align 8 dereferenceable(8) ptr @_ZNSo9_M_insertImEERSoT_(ptr noundef nonnull align 8 dereferenceable(8), i64 noundef) local_unnamed_addr #3

declare noundef nonnull align 8 dereferenceable(8) ptr @_ZSt16__ostream_insertIcSt11char_traitsIcEERSt13basic_ostreamIT_T0_ES6_PKS3_l(ptr noundef nonnull align 8 dereferenceable(8), ptr noundef, i64 noundef) local_unnamed_addr #3


!llvm.module.flags = !{!0, !1, !2}

!0 = !{i32 1, !"wchar_size", i32 4}
!1 = !{i32 8, !"PIC Level", i32 2}
!2 = !{i32 7, !"uwtable", i32 2}
!3 = !{!4, !5, i64 0}
!4 = !{!"_ZTSN4cvc58internal12RegExpRepeatE", !5, i64 0}
!5 = !{!"int", !6, i64 0}
!6 = !{!"omnipotent char", !7, i64 0}
!7 = !{!"Simple C++ TBAA"}
!8 = !{!9, !5, i64 0}
!9 = !{!"_ZTSN4cvc58internal10RegExpLoopE", !5, i64 0, !5, i64 4}
!10 = !{!9, !5, i64 4}
